; ModuleID = '45/1439.c'
source_filename = "45/1439.c"
target datalayout = "e-m:e-p270:32:32-p271:32:32-p272:64:64-i64:64-f80:128-n8:16:32:64-S128"
target triple = "x86_64-pc-linux-gnu"

@.str = private unnamed_addr constant [5 x i8] c"%s%s\00", align 1
@.str.1 = private unnamed_addr constant [3 x i8] c"%d\00", align 1

; Function Attrs: noinline nounwind uwtable
define dso_local i32 @main() #0 {
  %1 = alloca i32, align 4
  %2 = alloca [50 x i8], align 16
  %3 = alloca [50 x i8], align 16
  %4 = alloca i32, align 4
  %5 = alloca i32, align 4
  %6 = alloca i32, align 4
  %7 = alloca i32, align 4
  store i32 0, i32* %1, align 4
  %8 = bitcast [50 x i8]* %2 to i8*
  call void @llvm.memset.p0i8.i64(i8* align 16 %8, i8 0, i64 50, i1 false)
  %9 = bitcast i8* %8 to [50 x i8]*
  %10 = getelementptr inbounds [50 x i8], [50 x i8]* %9, i32 0, i32 0
  store i8 32, i8* %10, align 16
  %11 = bitcast [50 x i8]* %3 to i8*
  call void @llvm.memset.p0i8.i64(i8* align 16 %11, i8 0, i64 50, i1 false)
  %12 = bitcast i8* %11 to [50 x i8]*
  %13 = getelementptr inbounds [50 x i8], [50 x i8]* %12, i32 0, i32 0
  store i8 32, i8* %13, align 16
  %14 = getelementptr inbounds [50 x i8], [50 x i8]* %2, i64 0, i64 0
  %15 = getelementptr inbounds [50 x i8], [50 x i8]* %3, i64 0, i64 0
  %16 = call i32 (i8*, ...) @__isoc99_scanf(i8* getelementptr inbounds ([5 x i8], [5 x i8]* @.str, i64 0, i64 0), i8* %14, i8* %15)
  %17 = getelementptr inbounds [50 x i8], [50 x i8]* %2, i64 0, i64 0
  %18 = call i64 @strlen(i8* %17) #4
  %19 = trunc i64 %18 to i32
  store i32 %19, i32* %4, align 4
  %20 = getelementptr inbounds [50 x i8], [50 x i8]* %3, i64 0, i64 0
  %21 = call i64 @strlen(i8* %20) #4
  %22 = trunc i64 %21 to i32
  store i32 %22, i32* %5, align 4
  store i32 0, i32* %7, align 4
  %23 = load i32, i32* %4, align 4
  %24 = icmp eq i32 %23, 1
  br i1 %24, label %25, label %48

25:                                               ; preds = %0
  store i32 0, i32* %6, align 4
  br label %26

26:                                               ; preds = %44, %25
  %27 = load i32, i32* %6, align 4
  %28 = load i32, i32* %5, align 4
  %29 = icmp slt i32 %27, %28
  br i1 %29, label %30, label %47

30:                                               ; preds = %26
  %31 = load i32, i32* %6, align 4
  %32 = sext i32 %31 to i64
  %33 = getelementptr inbounds [50 x i8], [50 x i8]* %3, i64 0, i64 %32
  %34 = load i8, i8* %33, align 1
  %35 = sext i8 %34 to i32
  %36 = getelementptr inbounds [50 x i8], [50 x i8]* %2, i64 0, i64 0
  %37 = load i8, i8* %36, align 16
  %38 = sext i8 %37 to i32
  %39 = icmp eq i32 %35, %38
  br i1 %39, label %40, label %43

40:                                               ; preds = %30
  %41 = load i32, i32* %6, align 4
  %42 = call i32 (i8*, ...) @printf(i8* getelementptr inbounds ([3 x i8], [3 x i8]* @.str.1, i64 0, i64 0), i32 %41)
  br label %47

43:                                               ; preds = %30
  br label %44

44:                                               ; preds = %43
  %45 = load i32, i32* %6, align 4
  %46 = add nsw i32 %45, 1
  store i32 %46, i32* %6, align 4
  br label %26

47:                                               ; preds = %40, %26
  br label %48

48:                                               ; preds = %47, %0
  %49 = load i32, i32* %4, align 4
  %50 = icmp eq i32 %49, 2
  br i1 %50, label %51, label %86

51:                                               ; preds = %48
  store i32 0, i32* %6, align 4
  br label %52

52:                                               ; preds = %82, %51
  %53 = load i32, i32* %6, align 4
  %54 = load i32, i32* %5, align 4
  %55 = icmp slt i32 %53, %54
  br i1 %55, label %56, label %85

56:                                               ; preds = %52
  %57 = load i32, i32* %6, align 4
  %58 = sext i32 %57 to i64
  %59 = getelementptr inbounds [50 x i8], [50 x i8]* %3, i64 0, i64 %58
  %60 = load i8, i8* %59, align 1
  %61 = sext i8 %60 to i32
  %62 = getelementptr inbounds [50 x i8], [50 x i8]* %2, i64 0, i64 0
  %63 = load i8, i8* %62, align 16
  %64 = sext i8 %63 to i32
  %65 = icmp eq i32 %61, %64
  br i1 %65, label %66, label %81

66:                                               ; preds = %56
  %67 = load i32, i32* %6, align 4
  %68 = add nsw i32 %67, 1
  %69 = sext i32 %68 to i64
  %70 = getelementptr inbounds [50 x i8], [50 x i8]* %3, i64 0, i64 %69
  %71 = load i8, i8* %70, align 1
  %72 = sext i8 %71 to i32
  %73 = getelementptr inbounds [50 x i8], [50 x i8]* %2, i64 0, i64 1
  %74 = load i8, i8* %73, align 1
  %75 = sext i8 %74 to i32
  %76 = icmp eq i32 %72, %75
  br i1 %76, label %77, label %80

77:                                               ; preds = %66
  %78 = load i32, i32* %6, align 4
  %79 = call i32 (i8*, ...) @printf(i8* getelementptr inbounds ([3 x i8], [3 x i8]* @.str.1, i64 0, i64 0), i32 %78)
  br label %85

80:                                               ; preds = %66
  br label %81

81:                                               ; preds = %80, %56
  br label %82

82:                                               ; preds = %81
  %83 = load i32, i32* %6, align 4
  %84 = add nsw i32 %83, 1
  store i32 %84, i32* %6, align 4
  br label %52

85:                                               ; preds = %77, %52
  br label %86

86:                                               ; preds = %85, %48
  %87 = load i32, i32* %4, align 4
  %88 = icmp sge i32 %87, 3
  br i1 %88, label %89, label %136

89:                                               ; preds = %86
  store i32 1, i32* %7, align 4
  store i32 0, i32* %6, align 4
  br label %90

90:                                               ; preds = %132, %89
  %91 = load i32, i32* %6, align 4
  %92 = load i32, i32* %5, align 4
  %93 = icmp slt i32 %91, %92
  br i1 %93, label %94, label %135

94:                                               ; preds = %90
  %95 = load i32, i32* %6, align 4
  %96 = sext i32 %95 to i64
  %97 = getelementptr inbounds [50 x i8], [50 x i8]* %3, i64 0, i64 %96
  %98 = load i8, i8* %97, align 1
  %99 = sext i8 %98 to i32
  %100 = getelementptr inbounds [50 x i8], [50 x i8]* %2, i64 0, i64 0
  %101 = load i8, i8* %100, align 16
  %102 = sext i8 %101 to i32
  %103 = icmp eq i32 %99, %102
  br i1 %103, label %104, label %131

104:                                              ; preds = %94
  %105 = load i32, i32* %6, align 4
  %106 = add nsw i32 %105, 1
  %107 = sext i32 %106 to i64
  %108 = getelementptr inbounds [50 x i8], [50 x i8]* %3, i64 0, i64 %107
  %109 = load i8, i8* %108, align 1
  %110 = sext i8 %109 to i32
  %111 = getelementptr inbounds [50 x i8], [50 x i8]* %2, i64 0, i64 1
  %112 = load i8, i8* %111, align 1
  %113 = sext i8 %112 to i32
  %114 = icmp eq i32 %110, %113
  br i1 %114, label %115, label %130

115:                                              ; preds = %104
  %116 = load i32, i32* %6, align 4
  %117 = add nsw i32 %116, 2
  %118 = sext i32 %117 to i64
  %119 = getelementptr inbounds [50 x i8], [50 x i8]* %3, i64 0, i64 %118
  %120 = load i8, i8* %119, align 1
  %121 = sext i8 %120 to i32
  %122 = getelementptr inbounds [50 x i8], [50 x i8]* %2, i64 0, i64 2
  %123 = load i8, i8* %122, align 2
  %124 = sext i8 %123 to i32
  %125 = icmp eq i32 %121, %124
  br i1 %125, label %126, label %129

126:                                              ; preds = %115
  %127 = load i32, i32* %6, align 4
  %128 = call i32 (i8*, ...) @printf(i8* getelementptr inbounds ([3 x i8], [3 x i8]* @.str.1, i64 0, i64 0), i32 %127)
  br label %135

129:                                              ; preds = %115
  br label %130

130:                                              ; preds = %129, %104
  br label %131

131:                                              ; preds = %130, %94
  br label %132

132:                                              ; preds = %131
  %133 = load i32, i32* %6, align 4
  %134 = add nsw i32 %133, 1
  store i32 %134, i32* %6, align 4
  br label %90

135:                                              ; preds = %126, %90
  br label %136

136:                                              ; preds = %135, %86
  ret i32 0
}

; Function Attrs: argmemonly nounwind willreturn
declare void @llvm.memset.p0i8.i64(i8* nocapture writeonly, i8, i64, i1 immarg) #1

declare dso_local i32 @__isoc99_scanf(i8*, ...) #2

; Function Attrs: nounwind readonly
declare dso_local i64 @strlen(i8*) #3

declare dso_local i32 @printf(i8*, ...) #2


!llvm.module.flags = !{!0}
!llvm.ident = !{!1}

!0 = !{i32 1, !"wchar_size", i32 4}
!1 = !{!"clang version 10.0.0-4ubuntu1 "}
